(dp0
S'show_imports'
p1
I0
sS'prj_name'
p2
S'pyLatinam'
p3
sS'docformat'
p4
S'epytext'
p5
sS'inheritance'
p6
S'grouped'
p7
sS'help'
p8
NsS'modules'
p9
(S'/home/marvin/projects/py/pylatinam/__init__.py'
p10
S'/home/marvin/projects/py/pylatinam/locals.py'
p11
S'/home/marvin/projects/py/pylatinam/pylatserver.py'
p12
S'/home/marvin/projects/py/pylatinam/ltexcept.py'
p13
S'/home/marvin/projects/py/pylatinam/cgi-bin/index.py'
p14
S'/home/marvin/projects/py/pylatinam/cgi-bin/pylatinamcfg.py'
p15
S'/home/marvin/projects/py/pylatinam/lexicon/__init__.py'
p16
S'/home/marvin/projects/py/pylatinam/lexicon/lexicon.py'
p17
S'/home/marvin/projects/py/pylatinam/lexicon/testfile.py'
p18
S'/home/marvin/projects/py/pylatinam/morph/__init__.py'
p19
S'/home/marvin/projects/py/pylatinam/morph/adjective.py'
p20
S'/home/marvin/projects/py/pylatinam/morph/cai.py'
p21
S'/home/marvin/projects/py/pylatinam/morph/irregaux.py'
p22
S'/home/marvin/projects/py/pylatinam/morph/listnvs.py'
p23
S'/home/marvin/projects/py/pylatinam/morph/morphout.py'
p24
S'/home/marvin/projects/py/pylatinam/morph/noun.py'
p25
S'/home/marvin/projects/py/pylatinam/morph/preposition.py'
p26
S'/home/marvin/projects/py/pylatinam/morph/pronoun.py'
p27
S'/home/marvin/projects/py/pylatinam/morph/strings.py'
p28
S'/home/marvin/projects/py/pylatinam/morph/verb.py'
p29
S'/home/marvin/projects/py/pylatinam/syntax/__init__.py'
p30
S'/home/marvin/projects/py/pylatinam/tools/__init__.py'
p31
S'/home/marvin/projects/py/pylatinam/tools/helpers.py'
p32
S'/home/marvin/projects/py/pylatinam/tools/htmltxt.py'
p33
S'/home/marvin/projects/py/pylatinam/tools/out.py'
p34
S'/home/marvin/projects/py/pylatinam/tools/xmlout.py'
p35
tp36
sS'private'
p37
I1
sS'prj_url'
p38
S'http://code.google.com/p/pylatinam/'
p39
sS'introspect_or_parse'
p40
S'both'
p41
sS'frames'
p42
I1
sS'css'
p43
S'default'
p44
sS'target'
p45
S'/home/marvin/Desktop/epydocpylatinam'
p46
s.